; ModuleID = '54/890.c'
source_filename = "54/890.c"
target datalayout = "e-m:e-p270:32:32-p271:32:32-p272:64:64-i64:64-f80:128-n8:16:32:64-S128"
target triple = "x86_64-pc-linux-gnu"

@.str = private unnamed_addr constant [6 x i8] c"%d %d\00", align 1
@.str.1 = private unnamed_addr constant [3 x i8] c"%d\00", align 1

; Function Attrs: noinline nounwind uwtable
define dso_local void @main() #0 {
  %1 = alloca i32, align 4
  %2 = alloca i32, align 4
  %3 = alloca i32, align 4
  %4 = call i32 (i8*, ...) @__isoc99_scanf(i8* getelementptr inbounds ([6 x i8], [6 x i8]* @.str, i64 0, i64 0), i32* %1, i32* %2)
  %5 = load i32, i32* %1, align 4
  %6 = load i32, i32* %2, align 4
  %7 = call i32 @f(i32 %5, i32 %6)
  store i32 %7, i32* %3, align 4
  %8 = load i32, i32* %3, align 4
  %9 = call i32 (i8*, ...) @printf(i8* getelementptr inbounds ([3 x i8], [3 x i8]* @.str.1, i64 0, i64 0), i32 %8)
  ret void
}

declare dso_local i32 @__isoc99_scanf(i8*, ...) #1

declare dso_local i32 @printf(i8*, ...) #1

; Function Attrs: noinline nounwind uwtable
define dso_local i32 @f(i32 %0, i32 %1) #0 {
  %3 = alloca i32, align 4
  %4 = alloca i32, align 4
  %5 = alloca i32, align 4
  store i32 %0, i32* %3, align 4
  store i32 %1, i32* %4, align 4
  %6 = load i32, i32* %3, align 4
  %7 = sitofp i32 %6 to double
  %8 = load i32, i32* %3, align 4
  %9 = sitofp i32 %8 to double
  %10 = call double @pow(double %7, double %9) #3
  %11 = load i32, i32* %4, align 4
  %12 = load i32, i32* %3, align 4
  %13 = sub nsw i32 %12, 1
  %14 = mul nsw i32 %11, %13
  %15 = sitofp i32 %14 to double
  %16 = fsub double %10, %15
  %17 = fptosi double %16 to i32
  store i32 %17, i32* %5, align 4
  %18 = load i32, i32* %5, align 4
  ret i32 %18
}

; Function Attrs: nounwind
declare dso_local double @pow(double, double) #2


!llvm.module.flags = !{!0}
!llvm.ident = !{!1}

!0 = !{i32 1, !"wchar_size", i32 4}
!1 = !{!"clang version 10.0.0-4ubuntu1 "}
